target datalayout = "e-m:e-p270:32:32-p271:32:32-p272:64:64-i64:64-i128:128-f80:128-n8:16:32:64-S128"
target triple = "x86_64-pc-linux-gnu"

%"struct.cv::xphoto::hist_elem" = type { float, float, float }
%"class.cv::xphoto::LearningBasedWBImpl" = type <{ %"class.cv::xphoto::LearningBasedWB", i32, i32, i32, float, float, float, i32, i32, i32, [4 x i8], ptr, ptr, ptr, %"class.cv::Mat", %"class.cv::Mat", %"class.cv::Mat", %"class.cv::Mat", i32, [4 x i8] }>
%"class.cv::xphoto::LearningBasedWB" = type { %"class.cv::xphoto::WhiteBalancer" }
%"class.cv::xphoto::WhiteBalancer" = type { %"class.cv::Algorithm" }
%"class.cv::Algorithm" = type { ptr }
%"class.cv::Mat" = type { i32, i32, i32, i32, ptr, ptr, ptr, ptr, ptr, ptr, %"struct.cv::MatSize", %"struct.cv::MatStep" }
%"struct.cv::MatSize" = type { ptr }
%"struct.cv::MatStep" = type { ptr, [2 x i64] }
%"class.cv::Matx" = type { [2 x float] }

; Function Attrs: inlinehint mustprogress nounwind uwtable
define linkonce_odr hidden noundef nonnull align 4 dereferenceable(4) ptr @_ZN2cv3VecIfLi2EEixEi(ptr noundef nonnull align 4 dereferenceable(8) %0, i32 noundef %1) #5 comdat align 2 {
  %3 = alloca ptr, align 8
  %4 = alloca i32, align 4
  store ptr %0, ptr %3, align 8, !tbaa !52
  store i32 %1, ptr %4, align 4, !tbaa !27
  %5 = load ptr, ptr %3, align 8
  %6 = getelementptr inbounds nuw %"class.cv::Matx", ptr %5, i32 0, i32 0
  %7 = load i32, ptr %4, align 4, !tbaa !27
  %8 = sext i32 %7 to i64
  %9 = getelementptr inbounds [2 x float], ptr %6, i64 0, i64 %8
  ret ptr %9
}

; Function Attrs: inlinehint mustprogress nounwind uwtable
define linkonce_odr noundef nonnull align 4 dereferenceable(4) ptr @_ZSt3maxIfERKT_S2_S2_(ptr noundef nonnull align 4 dereferenceable(4) %0, ptr noundef nonnull align 4 dereferenceable(4) %1) #5 comdat {
  %3 = alloca ptr, align 8
  %4 = alloca ptr, align 8
  %5 = alloca ptr, align 8
  store ptr %0, ptr %4, align 8, !tbaa !67
  store ptr %1, ptr %5, align 8, !tbaa !67
  %6 = load ptr, ptr %4, align 8, !tbaa !67
  %7 = load float, ptr %6, align 4, !tbaa !59
  %8 = load ptr, ptr %5, align 8, !tbaa !67
  %9 = load float, ptr %8, align 4, !tbaa !59
  %10 = fcmp olt float %7, %9
  br i1 %10, label %11, label %13

11:                                               ; preds = %2
  %12 = load ptr, ptr %5, align 8, !tbaa !67
  store ptr %12, ptr %3, align 8
  br label %15

13:                                               ; preds = %2
  %14 = load ptr, ptr %4, align 8, !tbaa !67
  store ptr %14, ptr %3, align 8
  br label %15

15:                                               ; preds = %13, %11
  %16 = load ptr, ptr %3, align 8
  ret ptr %16
}

; Function Attrs: mustprogress uwtable
define hidden void @_ZN2cv6xphoto19LearningBasedWBImpl19getColorPaletteModeERNS_3VecIfLi2EEEPNS0_9hist_elemE(ptr noundef nonnull align 8 dereferenceable(460) %0, ptr noundef nonnull align 4 dereferenceable(8) %1, ptr noundef %2) #1 align 2 {
  %4 = alloca ptr, align 8
  %5 = alloca ptr, align 8
  %6 = alloca ptr, align 8
  %7 = alloca float, align 4
  %8 = alloca float, align 4
  %9 = alloca i32, align 4
  %10 = alloca i32, align 4
  %11 = alloca float, align 4
  %12 = alloca float, align 4
  %13 = alloca i32, align 4
  %14 = alloca float, align 4
  %15 = alloca float, align 4
  store ptr %0, ptr %4, align 8, !tbaa !11
  store ptr %1, ptr %5, align 8, !tbaa !52
  store ptr %2, ptr %6, align 8, !tbaa !3
  %16 = load ptr, ptr %4, align 8
  call void @llvm.lifetime.start.p0(i64 4, ptr %7) #22
  store float -1.000000e+00, ptr %7, align 4, !tbaa !59
  call void @llvm.lifetime.start.p0(i64 4, ptr %8) #22
  %17 = getelementptr inbounds nuw %"class.cv::xphoto::LearningBasedWBImpl", ptr %16, i32 0, i32 5
  %18 = load float, ptr %17, align 8, !tbaa !61
  %19 = getelementptr inbounds nuw %"class.cv::xphoto::LearningBasedWBImpl", ptr %16, i32 0, i32 5
  %20 = load float, ptr %19, align 8, !tbaa !61
  %21 = fmul float %18, %20
  store float %21, ptr %8, align 4, !tbaa !59
  call void @llvm.lifetime.start.p0(i64 4, ptr %9) #22
  store i32 0, ptr %9, align 4, !tbaa !27
  br label %22

22:                                               ; preds = %124, %3
  %23 = load i32, ptr %9, align 4, !tbaa !27
  %24 = getelementptr inbounds nuw %"class.cv::xphoto::LearningBasedWBImpl", ptr %16, i32 0, i32 3
  %25 = load i32, ptr %24, align 8, !tbaa !62
  %26 = icmp slt i32 %23, %25
  br i1 %26, label %28, label %27

27:                                               ; preds = %22
  store i32 2, ptr %10, align 4
  call void @llvm.lifetime.end.p0(i64 4, ptr %9) #22
  br label %127

28:                                               ; preds = %22
  call void @llvm.lifetime.start.p0(i64 4, ptr %11) #22
  store float 0.000000e+00, ptr %11, align 4, !tbaa !59
  call void @llvm.lifetime.start.p0(i64 4, ptr %12) #22
  call void @llvm.lifetime.start.p0(i64 4, ptr %13) #22
  store i32 0, ptr %13, align 4, !tbaa !27
  br label %29

29:                                               ; preds = %98, %28
  %30 = load i32, ptr %13, align 4, !tbaa !27
  %31 = getelementptr inbounds nuw %"class.cv::xphoto::LearningBasedWBImpl", ptr %16, i32 0, i32 3
  %32 = load i32, ptr %31, align 8, !tbaa !62
  %33 = icmp slt i32 %30, %32
  br i1 %33, label %35, label %34

34:                                               ; preds = %29
  store i32 5, ptr %10, align 4
  call void @llvm.lifetime.end.p0(i64 4, ptr %13) #22
  br label %101

35:                                               ; preds = %29
  %36 = load ptr, ptr %6, align 8, !tbaa !3
  %37 = load i32, ptr %9, align 4, !tbaa !27
  %38 = sext i32 %37 to i64
  %39 = getelementptr inbounds %"struct.cv::xphoto::hist_elem", ptr %36, i64 %38
  %40 = getelementptr inbounds nuw %"struct.cv::xphoto::hist_elem", ptr %39, i32 0, i32 1
  %41 = load float, ptr %40, align 4, !tbaa !63
  %42 = load ptr, ptr %6, align 8, !tbaa !3
  %43 = load i32, ptr %13, align 4, !tbaa !27
  %44 = sext i32 %43 to i64
  %45 = getelementptr inbounds %"struct.cv::xphoto::hist_elem", ptr %42, i64 %44
  %46 = getelementptr inbounds nuw %"struct.cv::xphoto::hist_elem", ptr %45, i32 0, i32 1
  %47 = load float, ptr %46, align 4, !tbaa !63
  %48 = fsub float %41, %47
  %49 = load ptr, ptr %6, align 8, !tbaa !3
  %50 = load i32, ptr %9, align 4, !tbaa !27
  %51 = sext i32 %50 to i64
  %52 = getelementptr inbounds %"struct.cv::xphoto::hist_elem", ptr %49, i64 %51
  %53 = getelementptr inbounds nuw %"struct.cv::xphoto::hist_elem", ptr %52, i32 0, i32 1
  %54 = load float, ptr %53, align 4, !tbaa !63
  %55 = load ptr, ptr %6, align 8, !tbaa !3
  %56 = load i32, ptr %13, align 4, !tbaa !27
  %57 = sext i32 %56 to i64
  %58 = getelementptr inbounds %"struct.cv::xphoto::hist_elem", ptr %55, i64 %57
  %59 = getelementptr inbounds nuw %"struct.cv::xphoto::hist_elem", ptr %58, i32 0, i32 1
  %60 = load float, ptr %59, align 4, !tbaa !63
  %61 = fsub float %54, %60
  %62 = load ptr, ptr %6, align 8, !tbaa !3
  %63 = load i32, ptr %9, align 4, !tbaa !27
  %64 = sext i32 %63 to i64
  %65 = getelementptr inbounds %"struct.cv::xphoto::hist_elem", ptr %62, i64 %64
  %66 = getelementptr inbounds nuw %"struct.cv::xphoto::hist_elem", ptr %65, i32 0, i32 2
  %67 = load float, ptr %66, align 4, !tbaa !64
  %68 = load ptr, ptr %6, align 8, !tbaa !3
  %69 = load i32, ptr %13, align 4, !tbaa !27
  %70 = sext i32 %69 to i64
  %71 = getelementptr inbounds %"struct.cv::xphoto::hist_elem", ptr %68, i64 %70
  %72 = getelementptr inbounds nuw %"struct.cv::xphoto::hist_elem", ptr %71, i32 0, i32 2
  %73 = load float, ptr %72, align 4, !tbaa !64
  %74 = fsub float %67, %73
  %75 = load ptr, ptr %6, align 8, !tbaa !3
  %76 = load i32, ptr %9, align 4, !tbaa !27
  %77 = sext i32 %76 to i64
  %78 = getelementptr inbounds %"struct.cv::xphoto::hist_elem", ptr %75, i64 %77
  %79 = getelementptr inbounds nuw %"struct.cv::xphoto::hist_elem", ptr %78, i32 0, i32 2
  %80 = load float, ptr %79, align 4, !tbaa !64
  %81 = load ptr, ptr %6, align 8, !tbaa !3
  %82 = load i32, ptr %13, align 4, !tbaa !27
  %83 = sext i32 %82 to i64
  %84 = getelementptr inbounds %"struct.cv::xphoto::hist_elem", ptr %81, i64 %83
  %85 = getelementptr inbounds nuw %"struct.cv::xphoto::hist_elem", ptr %84, i32 0, i32 2
  %86 = load float, ptr %85, align 4, !tbaa !64
  %87 = fsub float %80, %86
  %88 = fmul float %74, %87
  %89 = call float @llvm.fmuladd.f32(float %48, float %61, float %88)
  store float %89, ptr %12, align 4, !tbaa !59
  call void @llvm.lifetime.start.p0(i64 4, ptr %14) #22
  %90 = load float, ptr %12, align 4, !tbaa !59
  %91 = load float, ptr %8, align 4, !tbaa !59
  %92 = fdiv float %90, %91
  %93 = fsub float 1.000000e+00, %92
  store float %93, ptr %14, align 4, !tbaa !59
  call void @llvm.lifetime.start.p0(i64 4, ptr %15) #22
  store float 0.000000e+00, ptr %15, align 4, !tbaa !59
  %94 = call noundef nonnull align 4 dereferenceable(4) ptr @_ZSt3maxIfERKT_S2_S2_(ptr noundef nonnull align 4 dereferenceable(4) %14, ptr noundef nonnull align 4 dereferenceable(4) %15)
  %95 = load float, ptr %94, align 4, !tbaa !59
  %96 = load float, ptr %11, align 4, !tbaa !59
  %97 = fadd float %96, %95
  store float %97, ptr %11, align 4, !tbaa !59
  call void @llvm.lifetime.end.p0(i64 4, ptr %15) #22
  call void @llvm.lifetime.end.p0(i64 4, ptr %14) #22
  br label %98

98:                                               ; preds = %35
  %99 = load i32, ptr %13, align 4, !tbaa !27
  %100 = add nsw i32 %99, 1
  store i32 %100, ptr %13, align 4, !tbaa !27
  br label %29, !llvm.loop !65

101:                                              ; preds = %34
  %102 = load float, ptr %11, align 4, !tbaa !59
  %103 = load float, ptr %7, align 4, !tbaa !59
  %104 = fcmp ogt float %102, %103
  br i1 %104, label %105, label %123

105:                                              ; preds = %101
  %106 = load float, ptr %11, align 4, !tbaa !59
  store float %106, ptr %7, align 4, !tbaa !59
  %107 = load ptr, ptr %6, align 8, !tbaa !3
  %108 = load i32, ptr %9, align 4, !tbaa !27
  %109 = sext i32 %108 to i64
  %110 = getelementptr inbounds %"struct.cv::xphoto::hist_elem", ptr %107, i64 %109
  %111 = getelementptr inbounds nuw %"struct.cv::xphoto::hist_elem", ptr %110, i32 0, i32 1
  %112 = load float, ptr %111, align 4, !tbaa !63
  %113 = load ptr, ptr %5, align 8, !tbaa !52
  %114 = call noundef nonnull align 4 dereferenceable(4) ptr @_ZN2cv3VecIfLi2EEixEi(ptr noundef nonnull align 4 dereferenceable(8) %113, i32 noundef 0)
  store float %112, ptr %114, align 4, !tbaa !59
  %115 = load ptr, ptr %6, align 8, !tbaa !3
  %116 = load i32, ptr %9, align 4, !tbaa !27
  %117 = sext i32 %116 to i64
  %118 = getelementptr inbounds %"struct.cv::xphoto::hist_elem", ptr %115, i64 %117
  %119 = getelementptr inbounds nuw %"struct.cv::xphoto::hist_elem", ptr %118, i32 0, i32 2
  %120 = load float, ptr %119, align 4, !tbaa !64
  %121 = load ptr, ptr %5, align 8, !tbaa !52
  %122 = call noundef nonnull align 4 dereferenceable(4) ptr @_ZN2cv3VecIfLi2EEixEi(ptr noundef nonnull align 4 dereferenceable(8) %121, i32 noundef 1)
  store float %120, ptr %122, align 4, !tbaa !59
  br label %123

123:                                              ; preds = %105, %101
  call void @llvm.lifetime.end.p0(i64 4, ptr %12) #22
  call void @llvm.lifetime.end.p0(i64 4, ptr %11) #22
  br label %124

124:                                              ; preds = %123
  %125 = load i32, ptr %9, align 4, !tbaa !27
  %126 = add nsw i32 %125, 1
  store i32 %126, ptr %9, align 4, !tbaa !27
  br label %22, !llvm.loop !66

127:                                              ; preds = %27
  call void @llvm.lifetime.end.p0(i64 4, ptr %8) #22
  call void @llvm.lifetime.end.p0(i64 4, ptr %7) #22
  ret void
}