; Function Attrs: mustprogress nofree norecurse nosync nounwind memory(argmem: readwrite) uwtable
define hidden void @_ZN2cv6xphoto19LearningBasedWBImpl19getColorPaletteModeERNS_3VecIfLi2EEEPNS0_9hist_elemE(ptr noundef nonnull readonly align 8 captures(none) dereferenceable(460) %0, ptr noundef nonnull writeonly align 4 captures(none) dereferenceable(8) %1, ptr noundef readonly captures(none) %2) local_unnamed_addr #5 align 2 {
  %4 = getelementptr inbounds nuw i8, ptr %0, i64 24
  %5 = load float, ptr %4, align 8, !tbaa !41
  %6 = fmul float %5, %5
  %7 = getelementptr inbounds nuw i8, ptr %0, i64 16
  %8 = load i32, ptr %7, align 8, !tbaa !42
  %9 = icmp sgt i32 %8, 0
  br i1 %9, label %.preheader.lr.ph, label %._crit_edge39

.preheader.lr.ph:                                 ; preds = %3
  %10 = getelementptr inbounds nuw i8, ptr %1, i64 4
  %wide.trip.count44 = zext nneg i32 %8 to i64
  br label %.preheader.us

.preheader.us:                                    ; preds = %18, %.preheader.lr.ph
  %indvars.iv41 = phi i64 [ %indvars.iv.next42, %18 ], [ 0, %.preheader.lr.ph ]
  %.03238.us = phi float [ %.1.us, %18 ], [ -1.000000e+00, %.preheader.lr.ph ]
  %11 = getelementptr inbounds nuw %"struct.cv::xphoto::hist_elem", ptr %2, i64 %indvars.iv41
  %12 = getelementptr inbounds nuw i8, ptr %11, i64 4
  %13 = load float, ptr %12, align 4, !tbaa !43
  %14 = getelementptr inbounds nuw i8, ptr %11, i64 8
  %15 = load float, ptr %14, align 4, !tbaa !44
  br label %19

16:                                               ; preds = %._crit_edge.us
  store float %13, ptr %1, align 4, !tbaa !39
  %17 = load float, ptr %14, align 4, !tbaa !44
  store float %17, ptr %10, align 4, !tbaa !39
  br label %18

18:                                               ; preds = %16, %._crit_edge.us
  %.1.us = phi float [ %32, %16 ], [ %.03238.us, %._crit_edge.us ]
  %indvars.iv.next42 = add nuw nsw i64 %indvars.iv41, 1
  %exitcond45.not = icmp eq i64 %indvars.iv.next42, %wide.trip.count44
  br i1 %exitcond45.not, label %._crit_edge39, label %.preheader.us, !llvm.loop !45

19:                                               ; preds = %.preheader.us, %19
  %indvars.iv = phi i64 [ 0, %.preheader.us ], [ %indvars.iv.next, %19 ]
  %.03335.us = phi float [ 0.000000e+00, %.preheader.us ], [ %32, %19 ]
  %20 = getelementptr inbounds nuw %"struct.cv::xphoto::hist_elem", ptr %2, i64 %indvars.iv
  %21 = getelementptr inbounds nuw i8, ptr %20, i64 4
  %22 = load float, ptr %21, align 4, !tbaa !43
  %23 = fsub float %13, %22
  %24 = getelementptr inbounds nuw i8, ptr %20, i64 8
  %25 = load float, ptr %24, align 4, !tbaa !44
  %26 = fsub float %15, %25
  %27 = fmul float %26, %26
  %28 = tail call float @llvm.fmuladd.f32(float %23, float %23, float %27)
  %29 = fdiv float %28, %6
  %30 = fsub float 1.000000e+00, %29
  %31 = fcmp olt float %30, 0.000000e+00
  %.sroa.speculated.us = select i1 %31, float 0.000000e+00, float %30
  %32 = fadd float %.03335.us, %.sroa.speculated.us
  %indvars.iv.next = add nuw nsw i64 %indvars.iv, 1
  %exitcond.not = icmp eq i64 %indvars.iv.next, %wide.trip.count44
  br i1 %exitcond.not, label %._crit_edge.us, label %19, !llvm.loop !46

._crit_edge.us:                                   ; preds = %19
  %33 = fcmp ogt float %32, %.03238.us
  br i1 %33, label %16, label %18

._crit_edge39:                                    ; preds = %18, %3
  ret void
}